(dp1
S'cecf842d-0473-4a99-8965-024775e50444'
p2
((lp3
Vcwillu
p4
aS'root'
p5
aS'Users'
p6
aS'albert.cwillu.com'
p7
a(l(ltp8
sS'ec9bd3e8-0278-4f8d-ac59-b0eb04935c20'
p9
((lp10
Vcwillu
p11
aS'root'
p12
aS'Users'
p13
aS'guest'
p14
aS'$'
aS'8c2d203c-54fe-4d7e-bd3f-e100b3408668'
p15
a(lp16
(lp17
Vread
p18
aVmodify
p19
aVcross
p20
atp21
s.