(dp1
S'3adbdaac-5e84-4504-834c-fec0628b386e'
p2
((lp3
Vcwillu
p4
aS'root'
p5
aS'Users'
p6
aS'guest'
p7
aS'$'
aS'e68b1a48-f268-461f-8a20-ad0dbd0554db'
p8
a(lp9
(lp10
Vread
p11
aVmodify
p12
aVcross
p13
atp14
sS'4a1bb184-ece4-4cbe-b109-a657b62ebdcd'
p15
((lp16
Vcwillu
p17
aS'root'
p18
aS'Users'
p19
aS'6th.cwillu.com'
p20
aI0
tp21
s.