ccopy_reg
_reconstructor
p1
(creports.controllers
User
p2
c__builtin__
object
p3
NtRp4
(dp5
S'data'
p6
V[foo]
p7
sS'links'
p8
(dp9
S'foo'
p10
(S'fb931d52-6a8f-4ad4-9dc7-4270222044a9'
p11
g1
(cuuid
UUID
p12
g3
NtRp13
(dp14
S'int'
p15
L121866328829150343291891111303136432877L
sbS'da39da9bcc6a97d90e262ced316174e5f84013fbe6544422b1704f4377d9c51b'
tp16
ssb.