(dp1
S'b9e706cf-bb6d-4f25-863b-b30cceecb9cb'
p2
((lp3
Vcwillu
p4
aS'root'
p5
aS'Users'
p6
aS'22nd.cwillu.com'
p7
aI0
tp8
sS'c9e28fba-5e7e-41d3-a21d-5c0d45e36a1a'
p9
((lp10
S'guest'
p11
aS'$'
aS'c82d9a1f-c31e-4d7f-87f6-f2c13f49042b'
p12
a(lp13
(lp14
Vread
p15
aVcross
p16
aVmodify
p17
atp18
s.