(dp1
S'b09afe1b-23fd-4de3-8882-8a957886b845'
p2
((lp3
Vcwillu
p4
aS'root'
p5
aS'Users'
p6
aS'8th.cwillu.com'
p7
aI0
tp8
sS'03848679-493f-4c8c-9872-3d27a22a0c4c'
p9
((lp10
Vcwillu
p11
aS'root'
p12
aS'Users'
p13
aS'guest'
p14
aS'$'
aS'a180685f-0e02-4f58-9d18-0288a28cb370'
p15
a(lp16
(lp17
Vmodify
p18
aVread
p19
aVcross
p20
atp21
s.