(dp1
S'9ae5af9d-d069-4c51-8f08-966e35be8143'
p2
((lp3
S'gateways'
p4
aS'cwillu.com:8080'
p5
aVcwillu
p6
aS'guest'
p7
aS'$'
aS'Palette'
p8
aI0
tp9
sS'55f358d6-b483-4166-a95a-752815019ff9'
p10
((lp11
S'gateways'
p12
aS'cwillu.com:8080'
p13
aVcwillu
p14
aS'guest'
p15
aS'$'
aS'Palette'
p16
aI0
tp17
sS'e46b41fa-e87f-4cdc-8188-38df4891951a'
p18
((lp19
Vcwillu
p20
aS'Palette'
p21
aI0
tp22
s.