(dp1
S'66e5d471-71d6-4139-a6ae-73fe2b9d3288'
p2
((lp3
Vcwillu
p4
aS'root'
p5
aS'Users'
p6
aS'guest'
p7
aS'$'
aS'0ab35997-fff6-4a9d-9290-b0bcc0f2cf1b'
p8
a(lp9
(lp10
Vread
p11
aVmodify
p12
aVcross
p13
atp14
sS'2e3751a4-59d5-462f-8d19-9bda8e857323'
p15
((lp16
Vcwillu
p17
aS'root'
p18
aS'Users'
p19
aS'erminskin-ab.cwillu.com'
p20
aI0
tp21
s.