(dp1
S'f899c0b8-10aa-408b-b6af-6dbf35ba477e'
p2
((lp3
Vcwillu
p4
aS'root'
p5
aS'Users'
p6
aS'guest'
p7
aS'$'
aS'368133ea-c63a-4750-8416-ae899ae013ca'
p8
a(lp9
(lp10
Vread
p11
aVcross
p12
aVmodify
p13
atp14
sS'e993359f-a69e-41fd-9632-625da7559136'
p15
((lp16
Vcwillu
p17
aS'root'
p18
aS'Users'
p19
aS'venture.cwillu.com'
p20
aI0
tp21
s.