(dp1
S'5c9053c3-c0aa-4531-aae4-1ae6cc712a2d'
p2
((lp3
Vcwillu
p4
aS'root'
p5
aS'Users'
p6
aS'rochdale.cwillu.com'
p7
aI0
tp8
sS'27877d0b-9a0b-4a49-9f74-968cb511423e'
p9
((lp10
Vcwillu
p11
aS'root'
p12
aS'Users'
p13
aS'guest'
p14
aS'$'
aS'07ee1d30-fdfe-4203-b8f4-e5b1b401d612'
p15
a(lp16
(lp17
Vread
p18
aVmodify
p19
aVcross
p20
atp21
s.