ccopy_reg
_reconstructor
p1
(creports.builtins
Wiki
p2
c__builtin__
object
p3
NtRp4
(dp5
S'data'
p6
V[cwillu]\u000A
p7
sS'links'
p8
(dp9
Vcwillu
p10
((S'ee86131e-3642-4ad4-b34f-888146ac4da1'
tg1
(cuuid
UUID
p11
g3
NtRp12
(dp13
S'int'
p14
L281934165815558133551606188195229686519L
sbS'9d9e6a85ce5b65db30ad89928e75d7003640215f34af43f5014f32b0689552b2'
tp15
ssb.