ccopy_reg
_reconstructor
p1
(creports.builtins
Wiki
p2
c__builtin__
object
p3
NtRp4
(dp5
S'data'
p6
V[127.0.0.1:8080]\u000A
p7
sS'links'
p8
(dp9
V127.0.0.1:8080
p10
((S'6e0ced1c-d9a7-4b85-b3d7-355f7dc00386'
tg1
(cuuid
UUID
p11
g3
NtRp12
(dp13
S'int'
p14
L251358132293587013639962834350812887674L
sbS'15feed94172e5860c39310bdedf0272ec25d7d129a79d467b79d7e1d0877ef29'
tp15
ssb.