ccopy_reg
_reconstructor
p1
(creports.builtins
Wiki
p2
c__builtin__
object
p3
NtRp4
(dp5
S'data'
p6
V[127.0.0.1:8080]\u000A
p7
sS'links'
p8
(dp9
V127.0.0.1:8080
p10
((S'633998ef-182e-475e-bf5a-695f8053dc6a'
tg1
(cuuid
UUID
p11
g3
NtRp12
(dp13
S'int'
p14
L331265506440634846435484543462260368414L
sbS'77ea42be3a6c0ae01e65a3883aba127ae17a650c2df8361ec75e5e788146959a'
tp15
ssb.