(dp1
S'66370bf5-80d3-40a3-b572-cbc52b80286e'
p2
((lp3
Vcwillu
p4
aS'guest'
p5
aS'Tutorial'
p6
aS'self'
p7
aS'Test Page 1'
p8
aS'Self'
p9
aS'Test Page 2'
p10
aS'Test Page 3'
p11
aI0
tp12
sS'a4b94325-e1af-43ba-8d2d-5403f8147808'
p13
((lp14
Vcwillu
p15
aS'root'
p16
aS'guest'
p17
aS'Tutorial'
p18
aS'Test Page 1'
p19
aS'Test Page 3'
p20
aI0
tp21
s.