(dp1
S'ea646b7b-212d-48ac-932e-cefc0ecc8aa0'
p2
((lp3
Vcwillu
p4
aS'root'
p5
aS'Users'
p6
aS'fleet.cwillu.com'
p7
aI0
tp8
sS'755ac0df-35c8-4dd8-8e13-c98b12ffda87'
p9
((lp10
Vcwillu
p11
aS'root'
p12
aS'Users'
p13
aS'guest'
p14
aS'$'
aS'e79682e0-8fac-42e1-abfa-3ab86fe9ff09'
p15
a(lp16
(lp17
Vread
p18
aVmodify
p19
aVcross
p20
atp21
s.