ccopy_reg
_reconstructor
p1
(creports.controllers
Wiki
p2
c__builtin__
object
p3
NtRp4
(dp5
S'data'
p6
V[Default]
p7
sS'links'
p8
(dp9
VDefault
p10
(S'732fedb2-8942-4521-a84c-86bdcf5ff997'
g1
(cuuid
UUID
p11
g3
NtRp12
(dp13
S'int'
p14
L75876483227620041870844441802446148384L
sbS'60e153985c07c13bf5c0ca7ed4e7d7260ee7f7dc903ef7d56da01e1ab8ccd98b'
tp15
ssb.