ccopy_reg
_reconstructor
p1
(creports.builtins
Wiki
p2
c__builtin__
object
p3
NtRp4
(dp5
S'data'
p6
V[cwillu]\u000A
p7
sS'links'
p8
(dp9
Vcwillu
p10
((S'5d6735e7-e943-42b5-8cfe-4a8f596eb2c9'
tg1
(cuuid
UUID
p11
g3
NtRp12
(dp13
S'int'
p14
L293167612239496587601354803674474584698L
sbS'b80cdb055ab74561725baeef8a4e4fcdab45a10321085680d3c887bc8645c350'
tp15
ssb.