ccopy_reg
_reconstructor
p1
(creports.controllers
Wiki
p2
c__builtin__
object
p3
NtRp4
(dp5
S'data'
p6
V[testiong]
p7
sS'links'
p8
(dp9
Vtestiong
p10
(S'47ba71ee-552d-4cde-9636-ad912d9c1eb4'
p11
g1
(cuuid
UUID
p12
g3
NtRp13
(dp14
S'int'
p15
L215313437202654131861372623076417604783L
sbS'cb634a3da957b157496def13b031d2e8c07ada7801adf392076f72f941627cbc'
tp16
ssb.