ccopy_reg
_reconstructor
p1
(creports.builtins
Wiki
p2
c__builtin__
object
p3
NtRp4
(dp5
S'data'
p6
V[cwillu]\u000A
p7
sS'links'
p8
(dp9
Vcwillu
p10
((S'1ffbf3b1-e77d-4aaf-a9c5-a095584344e1'
tg1
(cuuid
UUID
p11
g3
NtRp12
(dp13
S'int'
p14
L197742106216038129918349762684437891502L
sbS'dd1876941746ec284eb42508356c12138bcf04afde7595b9f4c98e362230ac99'
tp15
ssb.