ccopy_reg
_reconstructor
p1
(creports.builtins
Wiki
p2
c__builtin__
object
p3
NtRp4
(dp5
S'data'
p6
V[127.0.0.1:8080]\u000A
p7
sS'links'
p8
(dp9
V127.0.0.1:8080
p10
((S'c5533902-89c6-4620-95ab-335e249a4e9a'
tg1
(cuuid
UUID
p11
g3
NtRp12
(dp13
S'int'
p14
L53235264133737587853000131436697848730L
sbS'8672d161d30b94a92bde4d889f4775600d55830732c94d55fa0bf059b4363e31'
tp15
ssb.