ccopy_reg
_reconstructor
p1
(creports.builtins
Wiki
p2
c__builtin__
object
p3
NtRp4
(dp5
S'data'
p6
V[127.0.0.1:8080]\u000A
p7
sS'links'
p8
(dp9
V127.0.0.1:8080
p10
((S'7280a124-07ce-44fe-88bd-2512965a706f'
tg1
(cuuid
UUID
p11
g3
NtRp12
(dp13
S'int'
p14
L80903842617528902692421451356937760907L
sbS'7cfc8987f3f0e39ca89d472453620e9511372a297b1008e679049541d67cf97f'
tp15
ssb.