ccopy_reg
_reconstructor
p1
(creports.controllers
Wiki
p2
c__builtin__
object
p3
NtRp4
(dp5
S'data'
p6
V[Test Page 3]
p7
sS'links'
p8
(dp9
VTest Page 3
p10
(S'51db2d5e-f878-404f-abd9-60b7eb08ce5a'
g1
(cuuid
UUID
p11
g3
NtRp12
(dp13
S'int'
p14
L135867074454555760575314651225228585070L
sbS'1aab126cebf403ace7a555da68bc6e8aae5030f5b66609f19a60aaf2fbebc0cc'
tp15
ssb.