(dp1
S'85584b87-1790-4667-b320-2edf28bf9fba'
p2
((lp3
Vcwillu
p4
aS'guest'
p5
aS'Tutorial'
p6
aS'Test Page 2'
p7
aI0
tp8
sS'0ba78674-4784-44be-80a9-eaa4add47c02'
p9
((lp10
Vcwillu
p11
aS'guest'
p12
aS'Tutorial'
p13
aS'self'
p14
aS'Test Page 1'
p15
aS'Test Page 2'
p16
aI0
tp17
s.