(dp1
S'cf9b09e7-61af-4891-a125-1b83f26c3b0d'
p2
((lp3
S'gateways'
p4
aS'127.0.0.1:8080'
p5
aVcwillu
p6
a(l(ltp7
sS'50eda356-c2dd-4444-bcbf-4ee388117509'
p8
((lp9
S'cwillu.com:8080'
p10
aVcwillu
p11
aS'gateways'
p12
aS'home'
p13
aI0
tp14
sS'8b072fe0-cf43-4c1f-a6a8-9adaac94e023'
p15
((lp16
Vcwillu
p17
a(l(ltp18
sS'595cc68d-c226-4183-8ca1-8061f38c9b73'
p19
((lp20
S'cwillu.com:8080'
p21
aVcwillu
p22
aS'root'
p23
aS'gateways'
p24
aS'home'
p25
a(lp26
(lp27
tp28
s.