(dp1
Vtest
p2
(S'ed7e0d22-9fdd-442c-8218-28e9a34073ea'
ccopy_reg
_reconstructor
p3
(cuuid
UUID
p4
c__builtin__
object
p5
NtRp6
(dp7
S'int'
p8
L66304406111185648880047551100465286738L
sbS'aef53763f3de600a868f5beb82b43bf6f50ed667acc58e2b42a2bbc804c1b9d9'
tp9
sVcwillu
p10
(S'22615cdc-4464-4a25-82ff-6249e303e7f2'
g3
(g4
g5
NtRp11
(dp12
S'int'
p13
L133102856669542797226805029418056638527L
sbS'cc980da48cbb29e54d5ca60c082fa955ed10e0a64d09beb48d5d987351b37ce0'
tp14
sVguest
p15
(S'47ba71ee-552d-4cde-9636-ad912d9c1eb4'
g3
(g4
g5
NtRp16
(dp17
S'int'
p18
L161610960004919616160744618167094604560L
sbS'e3f8f4d0e7ff34f5ba02b7170f778d86b67cb8edac151a657da5cb5e50dfbb0f'
tp19
sVUsers
p20
(S'60f62319-e586-49da-a65a-e3d1d32dd0ef'
g3
(g4
g5
NtRp21
(dp22
S'int'
p23
L176792715510123738170391091963622010935L
sbS'5567aec8aa048df7ff8651fd2924776e9d313110bf0742b40030db4ee4e384b2'
tp24
s.