ccopy_reg
_reconstructor
p1
(creports.builtins
Wiki
p2
c__builtin__
object
p3
NtRp4
(dp5
S'data'
p6
V[127.0.0.1:8080]\u000A
p7
sS'links'
p8
(dp9
V127.0.0.1:8080
p10
((S'21148eba-8c57-4ef2-a0e3-01d395bc8974'
tg1
(cuuid
UUID
p11
g3
NtRp12
(dp13
S'int'
p14
L328061216568353674338966030645802540256L
sbS'45759195565c7efb58d9012da911522d909a66548f90c6df634bcc42ecd21d95'
tp15
ssb.