ccopy_reg
_reconstructor
p1
(creports.builtins
Wiki
p2
c__builtin__
object
p3
NtRp4
(dp5
S'data'
p6
V[cwillu]\u000A
p7
sS'links'
p8
(dp9
Vcwillu
p10
((S'bb9f956a-7830-415d-878f-9319f3a74f1a'
tg1
(cuuid
UUID
p11
g3
NtRp12
(dp13
S'int'
p14
L122071814895324440075376071088405119268L
sbS'c9332a9b925db0e240dc333feeac5bd9afff5c429bd57ad8f3605230999ce943'
tp15
ssb.