(dp1
S'4623444f-9854-4e53-81ab-3ee94433b050'
p2
((lp3
Vcwillu
p4
aS'root'
p5
aS'Users'
p6
aS'university-ab.cwillu.com'
p7
aI0
tp8
sS'85cbe850-df21-41f7-8c1e-0b638f59ef06'
p9
((lp10
Vcwillu
p11
aS'root'
p12
aS'Users'
p13
aS'guest'
p14
aS'$'
aS'a936d284-b917-486c-89b9-832280d63b4a'
p15
a(lp16
(lp17
Vread
p18
aVcross
p19
aVmodify
p20
atp21
s.