ccopy_reg
_reconstructor
p1
(creports.builtins
Wiki
p2
c__builtin__
object
p3
NtRp4
(dp5
S'data'
p6
V[127.0.0.1:8080]\u000A
p7
sS'links'
p8
(dp9
V127.0.0.1:8080
p10
((S'ea9942fe-9948-46cf-8f3c-e05b87813d9c'
tg1
(cuuid
UUID
p11
g3
NtRp12
(dp13
S'int'
p14
L119544322029668148817925800241142474095L
sbS'73e9e8612a3de6ea85a6525499d9f9b2ccbf0427c33044e66d37cb0b22c6e5a6'
tp15
ssb.