(dp1
S'6656ecf6-bf69-45bb-8952-8a7a7941f9d6'
p2
((lp3
Vcwillu
p4
aS'root'
p5
aS'Users'
p6
aS'3rd-lethbridge.cwillu.com'
p7
aI0
tp8
sS'7fdc58b6-7472-47f2-b093-db3cbad69333'
p9
((lp10
Vcwillu
p11
aS'root'
p12
aS'Users'
p13
aS'guest'
p14
aS'$'
aS'6e1632ab-6dd1-4794-8de9-03a6af5858c9'
p15
a(lp16
(lp17
Vread
p18
aVmodify
p19
aVcross
p20
atp21
s.