ccopy_reg
_reconstructor
p1
(creports.builtins
User
p2
c__builtin__
object
p3
NtRp4
(dp5
S'data'
p6
V[root]\u000A
p7
sS'links'
p8
(dp9
Vroot
p10
((I1
tg1
(cuuid
UUID
p11
g3
NtRp12
(dp13
S'int'
p14
L108000557580700359518334828766179437280L
sbS'f9c17c6030cac1ff82dbc4c02c4b713fda6db2462ac5fc26d1206e38372865bd'
tp15
ssb.