(dp1
S'7a5d2c68-5073-49d1-8431-4167ac2b2330'
p2
((lp3
S'gateways'
p4
aI0
tp5
sS'287e9815-d988-4746-8e07-15c4c26c0fd0'
p6
((lp7
S'~hand'
p8
a(l(ltp9
sS'0fbb94ff-be39-428d-822b-0bb83c4980a1'
p10
((lp11
Vcwillu
p12
aS'root'
p13
aI0
tp14
s.