(dp1
S'c8d2147b-ab26-4b96-b8bb-dd9fe6503681'
p2
((lp3
Vcwillu
p4
aS'root'
p5
aS'cwillu.com:8080'
p6
aI0
tp7
sS'97272b7d-e532-4f46-9be2-546f41f873a3'
p8
((lp9
S'gateways'
p10
aS'cwillu.com:8080'
p11
aVcwillu
p12
aS'~hand'
p13
aI0
tp14
s.