ccopy_reg
_reconstructor
p1
(creports.controllers
Wiki
p2
c__builtin__
object
p3
NtRp4
(dp5
S'data'
p6
V[home]
p7
sS'links'
p8
(dp9
S'home'
p10
(S'22615cdc-4464-4a25-82ff-6249e303e7f2'
g1
(cuuid
UUID
p11
g3
NtRp12
(dp13
S'int'
p14
L107572126924960982329654313566363284745L
sbS'5853e021a127a126d37463c073091755567a584432bc2c6dde0a9d5839fd1e61'
tp15
ssb.