ccopy_reg
_reconstructor
p1
(creports.builtins
User
p2
c__builtin__
object
p3
NtRp4
(dp5
S'data'
p6
V[root]\u000A
p7
sS'links'
p8
(dp9
Vroot
p10
((I1
tg1
(cuuid
UUID
p11
g3
NtRp12
(dp13
S'int'
p14
L176173841888946847600764139543373493403L
sbS'966f31fb7d4267594454d7cd9a0c071ccda14be9bb48805e7781d6670823d2f8'
tp15
ssb.