ccopy_reg
_reconstructor
p1
(creports.builtins
User
p2
c__builtin__
object
p3
NtRp4
(dp5
S'data'
p6
V[root]\u000A
p7
sS'links'
p8
(dp9
Vroot
p10
((I1
tg1
(cuuid
UUID
p11
g3
NtRp12
(dp13
S'int'
p14
L25082960663446629798414904672681070831L
sbS'25d414948149b4fd3bc958ce207c727bff990417943d019b060b0342ac5f3eba'
tp15
ssb.