(dp1
S'ec0ddb9f-7b3f-437c-b3c7-1b0e6a7c95ec'
p2
((lp3
Vcwillu
p4
aS'root'
p5
aS'guest'
p6
a(lp7
Voverride
p8
a(lp9
Vtraverse
p10
atp11
sS'79952383-3ff8-43b9-ac7b-8e040579f310'
p12
((lp13
Vcwillu
p14
aS'guest'
p15
a(l(lp16
Voverride
p17
atp18
sS'fa93fb26-a895-4b64-9e12-07b12e19d723'
p19
((lp20
V~hand
p21
a(lp22
Voverride
p23
a(ltp24
sS'c9f3137e-df9c-48c3-ba21-dc3da5080a04'
p25
((lp26
Vcwillu
p27
aS'guest'
p28
aS'self'
p29
a(lp30
Vread
p31
a(ltp32
sS'1c7c5319-ad14-4414-8cfb-d57c2be81b7b'
p33
((lp34
S'~hand'
p35
a(lp36
Voverride
p37
a(ltp38
sS'a1fbdc0f-a59d-4d67-9b7f-f6db3e300caf'
p39
((lp40
S'guest'
p41
aS'Test Page 1'
p42
aS'moo'
p43
aS'testiong'
p44
a(lp45
Voverride
p46
aVtraverse
p47
a(ltp48
s.