(dp1
S'a7f96f34-75d3-40ae-8bbd-c8a49bc016cc'
p2
((lp3
S'guest'
p4
aS'Palette'
p5
aI0
tp6
sS'73cb57e1-d893-4d26-8805-8a24b50705fe'
p7
((lp8
S'gateways'
p9
aS'cwillu.com:8080'
p10
aVcwillu
p11
aS'Palette'
p12
aI0
tp13
s.