(dp1
S'718ecd49-fc6a-44da-8816-58997696ea51'
p2
((lp3
Vcwillu
p4
aS'root'
p5
aS'Users'
p6
aS'guest'
p7
aS'$'
aS'ad51c848-acbf-44b3-8d19-4b30ce6cd471'
p8
a(lp9
(lp10
Vread
p11
aVmodify
p12
aVcross
p13
atp14
sS'23e496b2-bf34-4658-844e-368b400d1753'
p15
((lp16
Vcwillu
p17
aS'root'
p18
aS'Users'
p19
aS'millwoods-ab.cwillu.com'
p20
aI0
tp21
s.