(dp1
S'b1385caf-0286-408b-a1e4-ac927a2961b8'
p2
((lp3
S'gateways'
p4
aS'cwillu.com:8080'
p5
aVcwillu
p6
aS'~hand'
p7
aI0
tp8
sS'ab19b8a6-14dc-41de-bf80-4f3205451985'
p9
((lp10
Vcwillu
p11
aS'Palette'
p12
aS'Default'
p13
aI0
tp14
sS'7d1a319a-a0d4-430e-a6c1-74447d71bf35'
p15
((lp16
S'guest'
p17
aS'Palette'
p18
aS'Default'
p19
aI0
tp20
s.