ccopy_reg
_reconstructor
p1
(creports.builtins
User
p2
c__builtin__
object
p3
NtRp4
(dp5
S'data'
p6
V[root]\u000A
p7
sS'links'
p8
(dp9
Vroot
p10
((I1
tg1
(cuuid
UUID
p11
g3
NtRp12
(dp13
S'int'
p14
L326027785716663892847318670730169567007L
sbS'13a586e6b6c93113c73508a6fb9e01dca178c4d12ef92b6183cbf3891149fcb9'
tp15
ssb.