ccopy_reg
_reconstructor
p1
(creports.builtins
CapRoot
p2
c__builtin__
object
p3
NtRp4
(dp5
S'data'
p6
S''
sS'links'
p7
(dp8
Vgateways
p9
((S'42b7ca8d-9157-4873-9513-6cedfb20dd55'
tp10
g1
(cuuid
UUID
p11
g3
NtRp12
(dp13
S'int'
p14
L3706675176354856793037891184335209357L
sbS'45d5c92b8a9808f92b6a7f98ae9f5c538ffcc613552328301a3f214e55536798'
tp15
ssb.