ccopy_reg
_reconstructor
p1
(creports.builtins
CapRoot
p2
c__builtin__
object
p3
NtRp4
(dp5
S'data'
p6
S'[test]'
p7
sS'links'
p8
(dp9
S'test'
p10
((S'9a8d0d2c-f786-440b-bde8-478a47d8ccae'
tp11
g1
(cuuid
UUID
p12
g3
NtRp13
(dp14
S'int'
p15
L300019154023520992988087842348349155245L
sbS'93af68bfd78a66d6f471339cdb144e15b365aa8992e63a81461ee4816235f9b3'
tp16
ssb.