ccopy_reg
_reconstructor
p1
(creports.builtins
CapRoot
p2
c__builtin__
object
p3
NtRp4
(dp5
S'data'
p6
V[gateways]\u000A[users]\u000A
p7
sS'links'
p8
(dp9
Vgateways
p10
((S'c5fd64ba-626c-4b93-8708-fbae3b269537'
tg1
(cuuid
UUID
p11
g3
NtRp12
(dp13
S'int'
p14
L153528786410331923593521148196763991295L
sbS'b637fca704f8371b8889e792cb9527051ac7d8cc72e9008a0f161fea9ac09e62'
tp15
sVusers
p16
((S'9987fcf6-66bb-45a0-b5f2-76da6be68437'
tg1
(g11
g3
NtRp17
(dp18
S'int'
p19
L217803610265043132494937919226530501697L
sbS'd20309c3aac64dd5a425236e12c7b3fc7d78073ae38cf8e13b7f2041310f75bf'
tp20
ssb.