ccopy_reg
_reconstructor
p1
(creports.builtins
CapRoot
p2
c__builtin__
object
p3
NtRp4
(dp5
S'data'
p6
V[gateways]\u000A[users]\u000A
p7
sS'links'
p8
(dp9
Vgateways
p10
((S'0066a4ec-9b08-40e4-b68f-42cb7a065bf7'
tg1
(cuuid
UUID
p11
g3
NtRp12
(dp13
S'int'
p14
L27606626345509736509991294478807375956L
sbS'729b2efa8f49c82d18540650090093f88b859aca05bf0f955f8a2c60d0f55749'
tp15
sVusers
p16
((S'aa0e0f53-26e1-4d0d-946f-c4af2d7c526f'
tg1
(g11
g3
NtRp17
(dp18
S'int'
p19
L67320336552222342493245525294245710096L
sbS'b8d696b5bbda080e817addba662deb6102d6db556909778ff9a70378c0c5f00c'
tp20
ssb.