ccopy_reg
_reconstructor
p1
(creports.builtins
CapRoot
p2
c__builtin__
object
p3
NtRp4
(dp5
S'data'
p6
V[gateways]\u000A[users]\u000A
p7
sS'links'
p8
(dp9
Vgateways
p10
((S'6b1604e9-abe8-424a-ac43-c9c13a127108'
tg1
(cuuid
UUID
p11
g3
NtRp12
(dp13
S'int'
p14
L194281717533853550740168666436572351915L
sbS'5aae0a1bec8b9438223b454fadebea00557a05b24cd75f9dd55d8c92ffa13837'
tp15
sVusers
p16
((S'f8024afa-2da3-42ed-872b-5e65371c731e'
tg1
(g11
g3
NtRp17
(dp18
S'int'
p19
L200268372644482799026386702854194260784L
sbS'f0cff4d78632183a2e942cf91225eebaafe893653998d7c152fb00232b1e4077'
tp20
ssb.