ccopy_reg
_reconstructor
p1
(creports.builtins
CapRoot
p2
c__builtin__
object
p3
NtRp4
(dp5
S'data'
p6
S''
sS'links'
p7
(dp8
Vgateways
p9
((S'076d82ac-4717-478f-a939-2beebd80f171'
tp10
g1
(cuuid
UUID
p11
g3
NtRp12
(dp13
S'int'
p14
L232490886426463286727867797338859743044L
sbS'3874e324004c72a66f3d767c9abcb7e4f7ec5ef78273ad037d8cab690778e930'
tp15
ssb.