(dp1
S'cdc61a8b-3d02-4002-81a5-a3669a2c090c'
p2
((lp3
Vcwillu
p4
aS'guest'
p5
aS'Tutorial'
p6
aS'self'
p7
aS'Test Page 1'
p8
aS'Self'
p9
aI0
tp10
sS'4471e50d-bfa4-4496-b0a5-d7860cb8637a'
p11
((lp12
Vcwillu
p13
aS'root'
p14
aS'guest'
p15
aS'Tutorial'
p16
aS'self'
p17
aS'self'
p18
aS'Test Page 1'
p19
aI0
tp20
s.