ccopy_reg
_reconstructor
p1
(creports.builtins
Wiki
p2
c__builtin__
object
p3
NtRp4
(dp5
S'data'
p6
V[127.0.0.1:8080]\u000A
p7
sS'links'
p8
(dp9
V127.0.0.1:8080
p10
((S'c447845e-db74-45ee-b0a1-536cded63994'
tg1
(cuuid
UUID
p11
g3
NtRp12
(dp13
S'int'
p14
L126150413804791424046199986743326606174L
sbS'a0a5bb9fb8f463c3122222f1e33336552ad31093d95b5b0dda3bea68834a356f'
tp15
ssb.