ccopy_reg
_reconstructor
p1
(creports.builtins
Wiki
p2
c__builtin__
object
p3
NtRp4
(dp5
S'data'
p6
V[127.0.0.1:8080]\u000A
p7
sS'links'
p8
(dp9
V127.0.0.1:8080
p10
((S'cddb4c66-163d-4f99-a6ab-67387e01d082'
tg1
(cuuid
UUID
p11
g3
NtRp12
(dp13
S'int'
p14
L190186353701607240796476642206904812078L
sbS'be71b76fe72f91859e15a70cc24c67cfa8e8f6f6e48104b4681ec2fd90cfad5d'
tp15
ssb.