(dp1
S'8610a2e8-aae6-49d7-9dc6-71167fd6a76b'
p2
((lp3
Vcwillu
p4
aS'root'
p5
aS'Users'
p6
aS'callingwood-ab.cwillu.com'
p7
aI0
tp8
sS'f65fd5fe-c88d-4468-98f0-350a032d168b'
p9
((lp10
Vcwillu
p11
aS'root'
p12
aS'Users'
p13
aS'guest'
p14
aS'$'
aS'af2cf317-52af-425e-83ba-5e556b541a19'
p15
a(lp16
(lp17
Vread
p18
aVmodify
p19
aVcross
p20
atp21
s.