(dp1
S'783806cd-9255-4d68-98e7-08788ac30982'
p2
((lp3
Vcwillu
p4
aS'root'
p5
aS'Users'
p6
aS'guest'
p7
aS'$'
aS'7fd58ac3-3d8f-4b9c-8ed0-2278628d624c'
p8
a(lp9
(lp10
Vread
p11
aVmodify
p12
aVcross
p13
atp14
sS'46e9a975-ece9-4650-8bb3-7547b7e267e3'
p15
((lp16
Vcwillu
p17
aS'root'
p18
aS'Users'
p19
aS'jasper-ab.cwillu.com'
p20
aI0
tp21
s.