(dp1
S'473d9e13-41da-4be9-b37d-f83decdd893e'
p2
((lp3
Vcwillu
p4
aS'root'
p5
aS'Users'
p6
aS'castledowns-ab.cwillu.com'
p7
aI0
tp8
sS'84ce313f-f9cb-41f5-98fb-ed56d9806042'
p9
((lp10
Vcwillu
p11
aS'root'
p12
aS'Users'
p13
aS'guest'
p14
aS'$'
aS'6fbf1e28-d7c8-4e08-95bb-b372fee321c3'
p15
a(lp16
(lp17
Vread
p18
aVmodify
p19
aVcross
p20
atp21
s.