ccopy_reg
_reconstructor
p1
(creports.controllers
Wiki
p2
c__builtin__
object
p3
NtRp4
(dp5
S'type'
p6
S'Wiki'
p7
sS'data'
p8
V[hmm]
p9
sS'links'
p10
(dp11
S'hmm'
p12
(S'a4270903-9706-408a-b498-aaf953aaba83'
p13
g1
(cuuid
UUID
p14
g3
NtRp15
(dp16
S'int'
p17
L52448397042088665575182000861286358564L
sbS'13fca28429103ea31a4c87d618f3cf18522047db29a099a8c5ee247a86731820'
tp18
ssb.